target datalayout = "e-m:e-p270:32:32-p271:32:32-p272:64:64-i64:64-i128:128-f80:128-n8:16:32:64-S128"
target triple = "x86_64-pc-linux-gnu"

%struct.Matrix = type { float, float, float, float, float, float, float, float, float, float, float, float, float, float, float, float }
%struct.Vector2 = type { float, float }
%struct.Point = type { i32, i32 }
%struct.Size = type { i32, i32 }
%struct.anon.7 = type { ptr }
%struct.anon.8 = type { %struct.anon.9, %struct.anon.10, %struct.anon.11, %struct.anon.12 }
%struct.anon.9 = type { i32, [512 x i8], [512 x i8], [512 x i8], [16 x i32], i32, [16 x i32], i32 }
%struct.anon.10 = type { %struct.Vector2, %struct.Vector2, %struct.Vector2, %struct.Vector2, i32, i8, i8, [8 x i8], [8 x i8], %struct.Vector2, %struct.Vector2 }
%struct.anon.11 = type { i32, [8 x i32], [8 x %struct.Vector2], [8 x i8], [8 x i8] }
%struct.anon.12 = type { i32, [4 x i32], [4 x i8], [4 x [128 x i8]], [4 x [32 x i8]], [4 x [32 x i8]], [4 x [8 x float]] }
%struct.anon.13 = type { double, double, double, double, double, double, i64, i32 }
%struct.CoreData = type { %struct.anon.6, %struct.anon.7, %struct.anon.8, %struct.anon.13 }
%struct.anon.6 = type { ptr, i32, i8, i8, i8, i8, i8, i8, %struct.Point, %struct.Point, %struct.Size, %struct.Size, %struct.Size, %struct.Size, %struct.Size, %struct.Point, %struct.Size, %struct.Size, %struct.Matrix, ptr, i32 }

; Function Attrs: nounwind uwtable
define i32 @GetKeyPressed() #0 {
  %1 = alloca i32, align 4
  %2 = alloca i32, align 4
  call void @llvm.lifetime.start.p0(i64 4, ptr %1) #16
  store i32 0, ptr %1, align 4
  %3 = load i32, ptr getelementptr inbounds nuw (%struct.anon.9, ptr getelementptr inbounds nuw (%struct.CoreData, ptr @CORE, i32 0, i32 2), i32 0, i32 5), align 4
  %4 = icmp sgt i32 %3, 0
  br i1 %4, label %5, label %32

5:                                                ; preds = %0
  %6 = load i32, ptr getelementptr inbounds nuw (%struct.anon.9, ptr getelementptr inbounds nuw (%struct.CoreData, ptr @CORE, i32 0, i32 2), i32 0, i32 4), align 4
  store i32 %6, ptr %1, align 4
  call void @llvm.lifetime.start.p0(i64 4, ptr %2) #16
  store i32 0, ptr %2, align 4
  br label %7

7:                                                ; preds = %22, %5
  %8 = load i32, ptr %2, align 4
  %9 = load i32, ptr getelementptr inbounds nuw (%struct.anon.9, ptr getelementptr inbounds nuw (%struct.CoreData, ptr @CORE, i32 0, i32 2), i32 0, i32 5), align 4
  %10 = sub nsw i32 %9, 1
  %11 = icmp slt i32 %8, %10
  br i1 %11, label %13, label %12

12:                                               ; preds = %7
  call void @llvm.lifetime.end.p0(i64 4, ptr %2) #16
  br label %25

13:                                               ; preds = %7
  %14 = load i32, ptr %2, align 4
  %15 = add nsw i32 %14, 1
  %16 = sext i32 %15 to i64
  %17 = getelementptr inbounds [16 x i32], ptr getelementptr inbounds nuw (%struct.anon.9, ptr getelementptr inbounds nuw (%struct.CoreData, ptr @CORE, i32 0, i32 2), i32 0, i32 4), i64 0, i64 %16
  %18 = load i32, ptr %17, align 4
  %19 = load i32, ptr %2, align 4
  %20 = sext i32 %19 to i64
  %21 = getelementptr inbounds [16 x i32], ptr getelementptr inbounds nuw (%struct.anon.9, ptr getelementptr inbounds nuw (%struct.CoreData, ptr @CORE, i32 0, i32 2), i32 0, i32 4), i64 0, i64 %20
  store i32 %18, ptr %21, align 4
  br label %22

22:                                               ; preds = %13
  %23 = load i32, ptr %2, align 4
  %24 = add nsw i32 %23, 1
  store i32 %24, ptr %2, align 4
  br label %7

25:                                               ; preds = %12
  %26 = load i32, ptr getelementptr inbounds nuw (%struct.anon.9, ptr getelementptr inbounds nuw (%struct.CoreData, ptr @CORE, i32 0, i32 2), i32 0, i32 5), align 4
  %27 = sub nsw i32 %26, 1
  %28 = sext i32 %27 to i64
  %29 = getelementptr inbounds [16 x i32], ptr getelementptr inbounds nuw (%struct.anon.9, ptr getelementptr inbounds nuw (%struct.CoreData, ptr @CORE, i32 0, i32 2), i32 0, i32 4), i64 0, i64 %28
  store i32 0, ptr %29, align 4
  %30 = load i32, ptr getelementptr inbounds nuw (%struct.anon.9, ptr getelementptr inbounds nuw (%struct.CoreData, ptr @CORE, i32 0, i32 2), i32 0, i32 5), align 4
  %31 = add nsw i32 %30, -1
  store i32 %31, ptr getelementptr inbounds nuw (%struct.anon.9, ptr getelementptr inbounds nuw (%struct.CoreData, ptr @CORE, i32 0, i32 2), i32 0, i32 5), align 4
  br label %32

32:                                               ; preds = %25, %0
  %33 = load i32, ptr %1, align 4
  call void @llvm.lifetime.end.p0(i64 4, ptr %1) #16
  ret i32 %33
}