; Function Attrs: nofree norecurse nosync nounwind memory(readwrite, argmem: none, inaccessiblemem: none) uwtable
define i32 @GetKeyPressed() local_unnamed_addr #50 {
  %1 = load i32, ptr getelementptr inbounds nuw (i8, ptr @CORE, i64 1796), align 4
  %2 = icmp sgt i32 %1, 0
  br i1 %2, label %3, label %15

3:                                                ; preds = %0
  %4 = load i32, ptr getelementptr inbounds nuw (i8, ptr @CORE, i64 1732), align 4
  %.not = icmp eq i32 %1, 1
  br i1 %.not, label %._crit_edge, label %.lr.ph

._crit_edge:                                      ; preds = %.lr.ph, %3
  %.pre-phi = phi i64 [ 0, %3 ], [ %13, %.lr.ph ]
  %5 = getelementptr inbounds [16 x i32], ptr getelementptr inbounds nuw (i8, ptr @CORE, i64 1732), i64 0, i64 %.pre-phi
  store i32 0, ptr %5, align 4
  %6 = load i32, ptr getelementptr inbounds nuw (i8, ptr @CORE, i64 1796), align 4
  %7 = add nsw i32 %6, -1
  store i32 %7, ptr getelementptr inbounds nuw (i8, ptr @CORE, i64 1796), align 4
  br label %15

.lr.ph:                                           ; preds = %3, %.lr.ph
  %indvars.iv = phi i64 [ %indvars.iv.next, %.lr.ph ], [ 0, %3 ]
  %indvars.iv.next = add nuw nsw i64 %indvars.iv, 1
  %8 = getelementptr inbounds nuw [16 x i32], ptr getelementptr inbounds nuw (i8, ptr @CORE, i64 1732), i64 0, i64 %indvars.iv.next
  %9 = load i32, ptr %8, align 4
  %10 = getelementptr inbounds nuw [16 x i32], ptr getelementptr inbounds nuw (i8, ptr @CORE, i64 1732), i64 0, i64 %indvars.iv
  store i32 %9, ptr %10, align 4
  %11 = load i32, ptr getelementptr inbounds nuw (i8, ptr @CORE, i64 1796), align 4
  %12 = add nsw i32 %11, -1
  %13 = sext i32 %12 to i64
  %14 = icmp slt i64 %indvars.iv.next, %13
  br i1 %14, label %.lr.ph, label %._crit_edge

15:                                               ; preds = %._crit_edge, %0
  %.05 = phi i32 [ %4, %._crit_edge ], [ 0, %0 ]
  ret i32 %.05
}